; Function Attrs: mustprogress nofree norecurse nosync nounwind willreturn memory(readwrite, inaccessiblemem: none) uwtable
define dso_local range(i32 -30, 2) i32 @onig_get_callout_data_dont_clear_old(ptr noundef readnone captures(none) %0, ptr noundef readonly captures(none) %1, i32 noundef %2, i32 noundef %3, ptr noundef writeonly captures(address_is_null) %4, ptr noundef writeonly captures(address_is_null) %5) local_unnamed_addr #13 {
  %7 = icmp slt i32 %2, 1
  br i1 %7, label %24, label %8

8:                                                ; preds = %6
  %9 = getelementptr inbounds nuw i8, ptr %1, i64 56
  %10 = load ptr, ptr %9, align 8, !tbaa !41
  %11 = zext nneg i32 %2 to i64
  %12 = getelementptr %struct.CalloutData, ptr %10, i64 %11
  %13 = getelementptr i8, ptr %12, i64 -120
  %14 = sext i32 %3 to i64
  %15 = getelementptr inbounds [5 x %struct.anon], ptr %13, i64 0, i64 %14
  %16 = load i32, ptr %15, align 8, !tbaa !53
  %.not = icmp eq ptr %4, null
  br i1 %.not, label %18, label %17

17:                                               ; preds = %8
  store i32 %16, ptr %4, align 4, !tbaa !24
  br label %18

18:                                               ; preds = %17, %8
  %.not16 = icmp eq ptr %5, null
  br i1 %.not16, label %21, label %19

19:                                               ; preds = %18
  %20 = getelementptr inbounds nuw i8, ptr %15, i64 8
  tail call void @llvm.memcpy.p0.p0.i64(ptr noundef nonnull align 8 dereferenceable(16) %5, ptr noundef nonnull align 8 dereferenceable(16) %20, i64 16, i1 false), !tbaa.struct !55
  br label %21

21:                                               ; preds = %19, %18
  %22 = icmp eq i32 %16, 0
  %23 = zext i1 %22 to i32
  br label %24

24:                                               ; preds = %6, %21
  %.0 = phi i32 [ %23, %21 ], [ -30, %6 ]
  ret i32 %.0
}